Certificate:
    Data:
        Version: 3 (0x2)
        Serial Number: 2 (0x2)
    Signature Algorithm: sha1WithRSAEncryption
        Issuer: C=US, ST=CA, L=SanFrancisco, O=Fort-Funston, OU=changeme, CN=openvpn.example.com/name=server/emailAddress=mail@host.domain
        Validity
            Not Before: Jul  9 13:23:15 2019 GMT
            Not After : Jul  6 13:23:15 2029 GMT
        Subject: C=US, ST=CA, L=SanFrancisco, O=Fort-Funston, OU=changeme, CN=client/name=server/emailAddress=mail@host.domain
        Subject Public Key Info:
            Public Key Algorithm: rsaEncryption
                Public-Key: (4096 bit)
                Modulus:
                    00:d9:17:e6:ee:1e:4c:bf:90:f2:67:09:eb:b3:dc:
                    b9:11:1e:25:b2:b6:cc:41:fc:1a:9e:9e:69:74:24:
                    c5:05:22:00:6d:c2:fe:7c:43:41:a2:87:06:d8:9b:
                    f9:3f:41:ba:ce:c0:91:84:a5:2f:f6:3b:af:c5:e0:
                    6d:5f:a8:06:ec:17:0b:35:ab:64:db:99:98:f6:b4:
                    b2:fe:37:a8:ab:f9:0b:ae:b3:89:fe:cc:55:62:4d:
                    f1:bb:dc:97:7c:df:99:46:e3:ee:17:20:97:90:ed:
                    f1:99:b2:98:9f:91:2c:d7:b1:3d:46:e4:8a:65:9e:
                    43:de:34:95:39:ea:51:39:0d:b0:d5:81:91:fe:3e:
                    67:fb:e0:5b:26:46:b9:78:76:1b:04:d2:95:ea:37:
                    9d:65:9d:e6:60:80:de:0f:de:4e:a0:74:58:91:4c:
                    f9:81:09:b2:78:e1:02:ea:0c:9a:93:0f:45:01:ae:
                    e1:b4:77:35:ba:f8:09:45:2d:da:4f:b2:e9:77:67:
                    05:e9:f9:60:31:d9:dc:08:85:62:46:e7:ab:1a:04:
                    ae:5e:aa:40:25:36:db:ba:cd:f8:ad:4d:35:13:92:
                    7a:95:95:45:e6:68:c9:7f:34:bd:29:0b:e8:8a:f0:
                    f4:d6:af:27:4b:c5:d0:3a:f6:a4:18:30:93:2a:94:
                    1c:bd:97:b6:43:c8:c8:02:04:c7:60:58:3c:17:c7:
                    cc:68:ff:f3:0a:2d:29:58:92:6b:56:e4:7a:44:c4:
                    03:37:ce:f9:a3:ad:63:92:e2:57:e4:ef:a4:b4:e8:
                    09:e0:a2:cc:d7:06:e8:e8:07:d1:28:2f:3d:26:95:
                    8a:5a:a8:0b:30:aa:2e:02:70:84:fd:d5:06:2c:aa:
                    15:2c:13:42:e8:06:3b:4b:e1:0e:e5:23:fb:6c:85:
                    91:48:91:f3:ca:fa:99:2c:37:01:c4:3f:9f:b5:31:
                    9f:31:a9:d1:ba:47:27:e1:44:8f:5c:32:61:a5:ad:
                    0c:d0:d4:13:13:cc:28:2b:99:8d:6a:bb:46:cf:eb:
                    bf:ff:ee:b8:e6:24:3d:aa:fd:a1:0e:16:00:d8:49:
                    ca:f1:e1:b1:27:5d:91:b4:2a:07:3b:67:3b:06:c3:
                    f4:18:85:24:af:4a:66:9d:57:2d:34:79:0b:3e:ef:
                    31:21:ee:5a:74:00:b8:bd:73:55:e6:c1:a9:c0:c3:
                    53:c3:08:0e:e6:2c:e0:6b:73:06:01:e7:57:69:cd:
                    02:a9:c3:17:7a:8c:95:6b:d4:b1:9f:21:01:72:03:
                    64:19:8d:33:28:39:63:44:0f:58:c8:5f:1b:27:71:
                    7a:53:cc:27:4c:b4:e1:a2:75:e4:38:9d:de:90:d1:
                    f4:cb:43
                Exponent: 65537 (0x10001)
        X509v3 extensions:
            X509v3 Basic Constraints: 
                CA:FALSE
            Netscape Comment: 
                Easy-RSA Generated Certificate
            X509v3 Subject Key Identifier: 
                BF:75:B5:0E:00:F6:B8:DB:AD:2B:9E:3E:C2:51:13:11:46:FC:43:FA
            X509v3 Authority Key Identifier: 
                keyid:1B:5F:76:93:DE:D3:4D:5A:3C:9B:98:93:6C:F3:50:B0:92:2C:09:01
                DirName:/C=US/ST=CA/L=SanFrancisco/O=Fort-Funston/OU=changeme/CN=openvpn.example.com/name=server/emailAddress=mail@host.domain
                serial:BC:72:6B:84:27:38:5F:74

            X509v3 Extended Key Usage: 
                TLS Web Client Authentication
            X509v3 Key Usage: 
                Digital Signature
    Signature Algorithm: sha1WithRSAEncryption
         1e:3b:3d:dd:f7:97:fe:53:2d:32:b5:46:b3:ef:9d:ac:82:a4:
         0d:ea:0e:15:78:c7:26:54:96:68:c5:14:c2:05:94:24:f3:04:
         32:f2:74:0b:64:1b:ce:a8:e9:71:9b:c4:58:9c:99:49:79:2b:
         b6:8b:fa:3f:39:dc:dc:d6:8c:8f:aa:23:28:b0:85:81:fa:fd:
         29:66:48:66:89:5b:1a:07:1f:78:62:67:24:d1:74:e3:ce:f2:
         ea:a2:37:ad:c1:d3:38:e5:f9:3c:50:c7:2e:60:b8:69:7e:a4:
         cb:27:c4:4e:7e:bd:fe:55:bb:41:63:6f:81:49:5a:f6:ee:08:
         df:f1:2c:77:8b:42:01:00:ec:a7:d6:2f:11:a8:15:be:02:7f:
         00:b0:cd:31:e4:60:19:39:0b:c9:52:de:9a:e8:f6:04:1c:f7:
         7b:94:23:3f:6a:08:74:f4:17:ba:3e:30:8b:69:ed:8f:66:f1:
         5d:86:9b:7f:fa:6e:f6:f3:89:83:df:b8:d9:72:4a:91:87:ae:
         71:77:86:45:43:7c:64:eb:c6:59:e8:39:d0:7e:f6:d7:92:7c:
         2e:d4:82:da:90:22:ce:27:97:95:23:4f:37:25:0b:12:cb:78:
         01:c7:ef:71:6c:fb:55:12:04:82:8a:0d:03:f5:47:e3:85:cc:
         60:39:07:a2:02:31:20:b1:62:26:ae:3a:60:19:02:69:bf:c8:
         8c:0b:96:68:a1:cb:fd:68:41:9c:45:1c:ad:31:7b:dc:5a:9a:
         d7:b7:7d:0f:86:c6:9a:83:19:48:f4:3d:a9:5d:99:40:30:77:
         6c:de:a0:8d:be:ac:28:77:f8:50:ee:3f:a8:f0:79:9e:b8:bd:
         8e:97:92:7c:e9:ce:8a:11:b1:da:96:94:10:74:01:89:73:57:
         4a:49:a7:23:9b:72:21:55:1e:e2:99:b7:26:26:61:10:20:d5:
         64:25:50:c1:bb:ca:f1:5d:09:69:83:d0:2b:1b:4f:aa:23:83:
         43:d2:d1:10:45:26:ba:9d:40:22:e5:d4:bc:f8:7d:98:db:89:
         8a:98:29:f1:23:b8:7b:82:d7:94:af:e2:af:cd:c7:aa:f2:70:
         2a:10:83:e1:b5:8d:c1:36:54:9e:0a:0f:d3:b2:59:7b:26:c4:
         9b:ef:c6:58:89:da:37:92:69:cb:f1:2e:ef:ac:fb:f9:45:10:
         ae:ad:22:90:2d:62:2d:52:79:b5:30:a2:1d:4c:ac:99:e0:87:
         75:f0:ae:52:9d:b9:da:0a:eb:b3:63:53:e7:a3:0a:b1:3d:5e:
         2a:ff:8b:b8:4f:6e:c4:fa:c2:fc:01:97:f8:75:1b:a7:61:d2:
         eb:6e:60:5f:ed:d9:b2:50
-----BEGIN CERTIFICATE-----
MIIHKjCCBRKgAwIBAgIBAjANBgkqhkiG9w0BAQUFADCBqzELMAkGA1UEBhMCVVMx
CzAJBgNVBAgTAkNBMRUwEwYDVQQHEwxTYW5GcmFuY2lzY28xFTATBgNVBAoTDEZv
cnQtRnVuc3RvbjERMA8GA1UECxMIY2hhbmdlbWUxHDAaBgNVBAMTE29wZW52cG4u
ZXhhbXBsZS5jb20xDzANBgNVBCkTBnNlcnZlcjEfMB0GCSqGSIb3DQEJARYQbWFp
bEBob3N0LmRvbWFpbjAeFw0xOTA3MDkxMzIzMTVaFw0yOTA3MDYxMzIzMTVaMIGe
MQswCQYDVQQGEwJVUzELMAkGA1UECBMCQ0ExFTATBgNVBAcTDFNhbkZyYW5jaXNj
bzEVMBMGA1UEChMMRm9ydC1GdW5zdG9uMREwDwYDVQQLEwhjaGFuZ2VtZTEPMA0G
A1UEAxMGY2xpZW50MQ8wDQYDVQQpEwZzZXJ2ZXIxHzAdBgkqhkiG9w0BCQEWEG1h
aWxAaG9zdC5kb21haW4wggIiMA0GCSqGSIb3DQEBAQUAA4ICDwAwggIKAoICAQDZ
F+buHky/kPJnCeuz3LkRHiWytsxB/Bqenml0JMUFIgBtwv58Q0GihwbYm/k/QbrO
wJGEpS/2O6/F4G1fqAbsFws1q2TbmZj2tLL+N6ir+Quus4n+zFViTfG73Jd835lG
4+4XIJeQ7fGZspifkSzXsT1G5IplnkPeNJU56lE5DbDVgZH+Pmf74FsmRrl4dhsE
0pXqN51lneZggN4P3k6gdFiRTPmBCbJ44QLqDJqTD0UBruG0dzW6+AlFLdpPsul3
ZwXp+WAx2dwIhWJG56saBK5eqkAlNtu6zfitTTUTknqVlUXmaMl/NL0pC+iK8PTW
rydLxdA69qQYMJMqlBy9l7ZDyMgCBMdgWDwXx8xo//MKLSlYkmtW5HpExAM3zvmj
rWOS4lfk76S06AngoszXBujoB9EoLz0mlYpaqAswqi4CcIT91QYsqhUsE0LoBjtL
4Q7lI/tshZFIkfPK+pksNwHEP5+1MZ8xqdG6RyfhRI9cMmGlrQzQ1BMTzCgrmY1q
u0bP67//7rjmJD2q/aEOFgDYScrx4bEnXZG0Kgc7ZzsGw/QYhSSvSmadVy00eQs+
7zEh7lp0ALi9c1XmwanAw1PDCA7mLOBrcwYB51dpzQKpwxd6jJVr1LGfIQFyA2QZ
jTMoOWNED1jIXxsncXpTzCdMtOGideQ4nd6Q0fTLQwIDAQABo4IBYjCCAV4wCQYD
VR0TBAIwADAtBglghkgBhvhCAQ0EIBYeRWFzeS1SU0EgR2VuZXJhdGVkIENlcnRp
ZmljYXRlMB0GA1UdDgQWBBS/dbUOAPa4260rnj7CURMRRvxD+jCB4AYDVR0jBIHY
MIHVgBQbX3aT3tNNWjybmJNs81CwkiwJAaGBsaSBrjCBqzELMAkGA1UEBhMCVVMx
CzAJBgNVBAgTAkNBMRUwEwYDVQQHEwxTYW5GcmFuY2lzY28xFTATBgNVBAoTDEZv
cnQtRnVuc3RvbjERMA8GA1UECxMIY2hhbmdlbWUxHDAaBgNVBAMTE29wZW52cG4u
ZXhhbXBsZS5jb20xDzANBgNVBCkTBnNlcnZlcjEfMB0GCSqGSIb3DQEJARYQbWFp
bEBob3N0LmRvbWFpboIJALxya4QnOF90MBMGA1UdJQQMMAoGCCsGAQUFBwMCMAsG
A1UdDwQEAwIHgDANBgkqhkiG9w0BAQUFAAOCAgEAHjs93feX/lMtMrVGs++drIKk
DeoOFXjHJlSWaMUUwgWUJPMEMvJ0C2QbzqjpcZvEWJyZSXkrtov6Pznc3NaMj6oj
KLCFgfr9KWZIZolbGgcfeGJnJNF0487y6qI3rcHTOOX5PFDHLmC4aX6kyyfETn69
/lW7QWNvgUla9u4I3/Esd4tCAQDsp9YvEagVvgJ/ALDNMeRgGTkLyVLemuj2BBz3
e5QjP2oIdPQXuj4wi2ntj2bxXYabf/pu9vOJg9+42XJKkYeucXeGRUN8ZOvGWeg5
0H7215J8LtSC2pAizieXlSNPNyULEst4AcfvcWz7VRIEgooNA/VH44XMYDkHogIx
ILFiJq46YBkCab/IjAuWaKHL/WhBnEUcrTF73Fqa17d9D4bGmoMZSPQ9qV2ZQDB3
bN6gjb6sKHf4UO4/qPB5nri9jpeSfOnOihGx2paUEHQBiXNXSkmnI5tyIVUe4pm3
JiZhECDVZCVQwbvK8V0JaYPQKxtPqiODQ9LREEUmup1AIuXUvPh9mNuJipgp8SO4
e4LXlK/ir83HqvJwKhCD4bWNwTZUngoP07JZeybEm+/GWInaN5Jpy/Eu76z7+UUQ
rq0ikC1iLVJ5tTCiHUysmeCHdfCuUp252grrs2NT56MKsT1eKv+LuE9uxPrC/AGX
+HUbp2HS625gX+3ZslA=
-----END CERTIFICATE-----
