Certificate:
    Data:
        Version: 3 (0x2)
        Serial Number: 2 (0x2)
    Signature Algorithm: sha1WithRSAEncryption
        Issuer: C=US, ST=CA, L=SanFrancisco, O=Fort-Funston, OU=changeme, CN=openvpn.example.com/name=server/emailAddress=mail@host.domain
        Validity
            Not Before: Jul  9 16:35:54 2019 GMT
            Not After : Jul  6 16:35:54 2029 GMT
        Subject: C=US, ST=CA, L=SanFrancisco, O=Fort-Funston, OU=changeme, CN=client/name=server/emailAddress=mail@host.domain
        Subject Public Key Info:
            Public Key Algorithm: rsaEncryption
                Public-Key: (4096 bit)
                Modulus:
                    00:94:81:5c:ee:e0:2d:6b:86:74:7a:c7:c9:4a:2e:
                    97:55:c9:1a:71:ae:7e:7f:b1:da:75:73:ec:e3:f9:
                    97:6d:9d:6b:1c:7b:ed:ed:86:02:7b:1b:0c:f9:74:
                    e0:63:53:4f:26:65:09:b8:4d:08:1f:3f:f9:6f:90:
                    a0:7b:c5:72:90:79:be:9f:8c:3a:d2:7f:30:e3:ae:
                    64:da:84:49:32:fe:a9:a4:89:fa:b2:a4:e1:d7:0b:
                    9b:7c:75:eb:c2:59:bb:f0:60:f2:b8:69:7d:8b:88:
                    d8:0e:8f:d6:d7:c7:8f:9e:88:fe:24:19:f0:a7:9d:
                    44:37:9a:b5:bf:fc:c1:17:37:24:81:f2:37:d7:3d:
                    b4:fb:6d:d6:7f:d8:f4:a2:32:5c:d5:12:d6:00:a1:
                    6f:63:64:ac:ec:37:7a:69:6f:8c:c9:12:12:3f:dc:
                    86:8a:df:e1:06:d7:44:3b:e0:46:95:0c:82:ca:2c:
                    db:9a:c7:bf:31:7b:9e:51:07:5f:d6:6f:6b:c0:9e:
                    45:0d:20:a9:7e:d0:8a:0f:d4:ef:a0:bb:1f:ea:0d:
                    4a:e7:62:69:ed:22:7e:d6:f0:23:2e:de:25:48:73:
                    ac:fb:c5:ce:88:7c:22:84:02:20:e5:d6:ab:51:69:
                    61:ca:b1:c1:25:e0:12:41:e4:b8:4e:37:9c:d5:37:
                    45:29:6a:9b:35:6c:81:4c:e1:32:d0:29:20:b1:b2:
                    00:12:91:66:83:39:16:92:83:4f:8b:41:dd:9a:f2:
                    ae:3d:34:22:5e:aa:ac:39:40:bc:33:81:a6:8a:b0:
                    87:1d:21:5e:3f:70:04:41:bd:35:b3:5c:1f:42:28:
                    c6:74:93:84:e3:88:b8:51:8f:c8:11:f2:ed:ca:6b:
                    06:89:18:0c:c6:97:8b:6b:8e:c6:69:35:79:24:83:
                    80:24:7b:95:37:50:e9:1a:c1:3d:ec:64:39:d0:60:
                    bc:93:2e:37:4a:79:f2:2f:3c:9f:5b:6d:c6:c1:8f:
                    61:d9:5c:83:4c:b9:1f:39:fe:bf:00:72:27:56:ed:
                    7d:ea:9b:1a:a3:b3:f5:e1:84:dd:75:7f:21:d9:7b:
                    4b:0a:1a:25:d2:de:d4:06:62:2a:8c:0c:be:e6:cc:
                    94:64:0d:12:c5:55:2d:a3:64:ea:99:46:f1:01:3c:
                    db:bd:2b:53:52:cc:0b:c7:c8:4c:cf:da:3f:e2:42:
                    06:6a:8a:bd:24:dd:ea:5a:b5:2f:46:3c:0c:de:4a:
                    d9:63:e4:cb:b0:1d:79:6d:86:9c:a3:9c:e8:b3:3a:
                    85:a5:00:a9:79:b9:e9:c7:73:a1:89:65:0e:dc:f5:
                    52:8a:04:23:b0:43:ac:d2:ad:32:4f:98:70:b9:43:
                    dd:10:b1
                Exponent: 65537 (0x10001)
        X509v3 extensions:
            X509v3 Basic Constraints: 
                CA:FALSE
            Netscape Comment: 
                Easy-RSA Generated Certificate
            X509v3 Subject Key Identifier: 
                78:4A:2D:3C:F8:38:77:8C:4F:5D:33:92:A0:3A:89:A8:F5:E2:BB:C4
            X509v3 Authority Key Identifier: 
                keyid:2D:96:D0:AC:65:E5:07:C8:7B:EE:2F:4D:ED:7D:41:63:A9:2E:80:29
                DirName:/C=US/ST=CA/L=SanFrancisco/O=Fort-Funston/OU=changeme/CN=openvpn.example.com/name=server/emailAddress=mail@host.domain
                serial:C6:62:B6:C8:F7:B4:D6:E4

            X509v3 Extended Key Usage: 
                TLS Web Client Authentication
            X509v3 Key Usage: 
                Digital Signature
    Signature Algorithm: sha1WithRSAEncryption
         06:8e:d4:7f:2f:48:2f:b6:48:40:0c:a7:10:e4:38:d6:cd:61:
         9b:d3:c3:95:75:02:94:66:96:be:38:70:01:f7:c7:01:9f:88:
         0c:e5:ba:8e:39:a9:80:36:ac:cb:f7:0f:4f:23:d0:51:36:30:
         31:f0:cb:f1:1e:f7:a2:75:f1:8c:74:5c:8b:b0:91:45:21:ca:
         82:70:9a:27:91:75:3c:c2:cf:36:9b:fe:bc:e7:e7:23:7e:be:
         ce:b3:ee:57:68:f0:1a:dd:19:ca:58:87:b7:68:28:61:40:17:
         d5:cc:6d:a3:51:ce:c1:3d:40:04:70:01:3d:d5:3c:47:cc:fb:
         73:e6:58:a7:f9:d9:81:2d:d4:b2:08:23:27:88:78:d4:f5:8b:
         aa:35:84:a0:71:9d:7d:06:46:e8:03:83:32:93:24:f1:7a:a3:
         36:3b:2a:25:fc:e2:89:5b:01:e5:75:c1:0a:59:14:8a:d3:9b:
         50:88:48:63:67:db:d8:d2:f0:79:07:6d:ff:cb:bf:99:cb:d8:
         f6:9e:3e:fa:be:69:f5:6b:11:97:f8:cd:f7:01:7a:65:92:b7:
         82:cd:3c:9e:a3:46:04:9c:1f:75:73:f8:54:ac:0c:6a:3f:8c:
         2c:4a:ad:97:75:a0:7b:a7:00:af:ac:84:72:6d:4c:e8:a6:81:
         fe:55:bb:c3:dd:30:df:eb:1b:f9:84:4e:8f:9e:dc:14:0c:b9:
         90:4d:dd:33:18:cb:80:88:12:76:99:8a:7d:8c:39:59:a9:e0:
         24:24:d5:bb:a0:59:dd:1c:c4:c3:61:39:8b:54:0d:24:a2:b8:
         c5:6f:e0:df:fa:8e:d2:f5:2e:48:99:76:d7:08:90:20:1b:da:
         cd:91:ee:09:2d:66:fa:70:f3:ab:2b:18:fa:26:5d:69:00:d0:
         91:9e:72:2b:b9:7a:ad:2a:ea:43:07:31:b1:6a:46:35:00:a8:
         83:43:32:65:a3:1c:3a:14:8a:67:ec:1b:70:14:03:ca:19:3f:
         8f:33:31:ff:f0:c9:59:1b:d7:16:f6:56:90:32:21:e1:2c:3f:
         32:e8:bd:8a:1a:ec:b3:23:8a:88:b3:71:b8:1f:54:4c:d3:74:
         b3:aa:a9:7f:43:b9:db:f9:33:36:99:44:4c:1b:90:26:6d:92:
         7a:41:4f:39:82:7a:b2:b0:f4:61:7b:2c:60:38:28:47:9f:cc:
         bb:96:b5:98:fa:8f:9c:2a:04:c4:45:a1:46:89:e9:8d:0c:4b:
         de:fe:f1:52:4d:56:3d:d0:fe:68:29:88:c5:ec:c3:ed:83:26:
         f4:0d:c8:ed:7c:c7:b8:d1:3c:db:2e:f4:85:a5:c1:cd:8a:9c:
         53:6c:a5:75:f7:e7:41:d0
-----BEGIN CERTIFICATE-----
MIIHKjCCBRKgAwIBAgIBAjANBgkqhkiG9w0BAQUFADCBqzELMAkGA1UEBhMCVVMx
CzAJBgNVBAgTAkNBMRUwEwYDVQQHEwxTYW5GcmFuY2lzY28xFTATBgNVBAoTDEZv
cnQtRnVuc3RvbjERMA8GA1UECxMIY2hhbmdlbWUxHDAaBgNVBAMTE29wZW52cG4u
ZXhhbXBsZS5jb20xDzANBgNVBCkTBnNlcnZlcjEfMB0GCSqGSIb3DQEJARYQbWFp
bEBob3N0LmRvbWFpbjAeFw0xOTA3MDkxNjM1NTRaFw0yOTA3MDYxNjM1NTRaMIGe
MQswCQYDVQQGEwJVUzELMAkGA1UECBMCQ0ExFTATBgNVBAcTDFNhbkZyYW5jaXNj
bzEVMBMGA1UEChMMRm9ydC1GdW5zdG9uMREwDwYDVQQLEwhjaGFuZ2VtZTEPMA0G
A1UEAxMGY2xpZW50MQ8wDQYDVQQpEwZzZXJ2ZXIxHzAdBgkqhkiG9w0BCQEWEG1h
aWxAaG9zdC5kb21haW4wggIiMA0GCSqGSIb3DQEBAQUAA4ICDwAwggIKAoICAQCU
gVzu4C1rhnR6x8lKLpdVyRpxrn5/sdp1c+zj+ZdtnWsce+3thgJ7Gwz5dOBjU08m
ZQm4TQgfP/lvkKB7xXKQeb6fjDrSfzDjrmTahEky/qmkifqypOHXC5t8devCWbvw
YPK4aX2LiNgOj9bXx4+eiP4kGfCnnUQ3mrW//MEXNySB8jfXPbT7bdZ/2PSiMlzV
EtYAoW9jZKzsN3ppb4zJEhI/3IaK3+EG10Q74EaVDILKLNuax78xe55RB1/Wb2vA
nkUNIKl+0IoP1O+gux/qDUrnYmntIn7W8CMu3iVIc6z7xc6IfCKEAiDl1qtRaWHK
scEl4BJB5LhON5zVN0Upaps1bIFM4TLQKSCxsgASkWaDORaSg0+LQd2a8q49NCJe
qqw5QLwzgaaKsIcdIV4/cARBvTWzXB9CKMZ0k4TjiLhRj8gR8u3KawaJGAzGl4tr
jsZpNXkkg4Ake5U3UOkawT3sZDnQYLyTLjdKefIvPJ9bbcbBj2HZXINMuR85/r8A
cidW7X3qmxqjs/XhhN11fyHZe0sKGiXS3tQGYiqMDL7mzJRkDRLFVS2jZOqZRvEB
PNu9K1NSzAvHyEzP2j/iQgZqir0k3epatS9GPAzeStlj5MuwHXlthpyjnOizOoWl
AKl5uenHc6GJZQ7c9VKKBCOwQ6zSrTJPmHC5Q90QsQIDAQABo4IBYjCCAV4wCQYD
VR0TBAIwADAtBglghkgBhvhCAQ0EIBYeRWFzeS1SU0EgR2VuZXJhdGVkIENlcnRp
ZmljYXRlMB0GA1UdDgQWBBR4Si08+Dh3jE9dM5KgOomo9eK7xDCB4AYDVR0jBIHY
MIHVgBQtltCsZeUHyHvuL03tfUFjqS6AKaGBsaSBrjCBqzELMAkGA1UEBhMCVVMx
CzAJBgNVBAgTAkNBMRUwEwYDVQQHEwxTYW5GcmFuY2lzY28xFTATBgNVBAoTDEZv
cnQtRnVuc3RvbjERMA8GA1UECxMIY2hhbmdlbWUxHDAaBgNVBAMTE29wZW52cG4u
ZXhhbXBsZS5jb20xDzANBgNVBCkTBnNlcnZlcjEfMB0GCSqGSIb3DQEJARYQbWFp
bEBob3N0LmRvbWFpboIJAMZitsj3tNbkMBMGA1UdJQQMMAoGCCsGAQUFBwMCMAsG
A1UdDwQEAwIHgDANBgkqhkiG9w0BAQUFAAOCAgEABo7Ufy9IL7ZIQAynEOQ41s1h
m9PDlXUClGaWvjhwAffHAZ+IDOW6jjmpgDasy/cPTyPQUTYwMfDL8R73onXxjHRc
i7CRRSHKgnCaJ5F1PMLPNpv+vOfnI36+zrPuV2jwGt0ZyliHt2goYUAX1cxto1HO
wT1ABHABPdU8R8z7c+ZYp/nZgS3UsggjJ4h41PWLqjWEoHGdfQZG6AODMpMk8Xqj
NjsqJfziiVsB5XXBClkUitObUIhIY2fb2NLweQdt/8u/mcvY9p4++r5p9WsRl/jN
9wF6ZZK3gs08nqNGBJwfdXP4VKwMaj+MLEqtl3Wge6cAr6yEcm1M6KaB/lW7w90w
3+sb+YROj57cFAy5kE3dMxjLgIgSdpmKfYw5WangJCTVu6BZ3RzEw2E5i1QNJKK4
xW/g3/qO0vUuSJl21wiQIBvazZHuCS1m+nDzqysY+iZdaQDQkZ5yK7l6rSrqQwcx
sWpGNQCog0MyZaMcOhSKZ+wbcBQDyhk/jzMx//DJWRvXFvZWkDIh4Sw/Mui9ihrs
syOKiLNxuB9UTNN0s6qpf0O52/kzNplETBuQJm2SekFPOYJ6srD0YXssYDgoR5/M
u5a1mPqPnCoExEWhRonpjQxL3v7xUk1WPdD+aCmIxezD7YMm9A3I7XzHuNE82y70
haXBzYqcU2yldffnQdA=
-----END CERTIFICATE-----
